; Function Attrs: mustprogress uwtable
define void @_ZN5boost6locale9generatorC2ERKNS0_28localization_backend_managerE(ptr nocapture noundef nonnull writeonly align 8 dereferenceable(8) %0, ptr noundef nonnull align 8 dereferenceable(8) %1) unnamed_addr #5 align 2 personality ptr @__gxx_personality_v0 {
  %3 = tail call noalias noundef nonnull dereferenceable(208) ptr @_Znwm(i64 noundef 208) #30
  invoke void @_ZN5boost6locale9generator4dataC2ERKNS0_28localization_backend_managerE(ptr noundef nonnull align 8 dereferenceable(208) %3, ptr noundef nonnull align 8 dereferenceable(8) %1)
          to label %4 unwind label %5

4:                                                ; preds = %2
  store ptr %3, ptr %0, align 8, !tbaa !17
  ret void

5:                                                ; preds = %2
  %6 = landingpad { ptr, i32 }
          cleanup
  tail call void @_ZdlPvm(ptr noundef nonnull %3, i64 noundef 208) #31
  resume { ptr, i32 } %6
}